; Function Attrs: nounwind uwtable
define dso_local i32 @acct_storage_g_get_usage(ptr noundef %0, i32 noundef %1, ptr noundef %2, i32 noundef %3, i64 noundef %4, i64 noundef %5) local_unnamed_addr #0 {
  %7 = load i32, ptr @plugin_inited, align 4
  %8 = icmp eq i32 %7, 1
  br i1 %8, label %12, label %9

9:                                                ; preds = %6
  %10 = load ptr, ptr getelementptr inbounds nuw (i8, ptr @ops, i64 408), align 8
  %11 = tail call i32 %10(ptr noundef %0, i32 noundef %1, ptr noundef %2, i32 noundef %3, i64 noundef %4, i64 noundef %5) #8
  br label %12

12:                                               ; preds = %6, %9
  %.0 = phi i32 [ %11, %9 ], [ 0, %6 ]
  ret i32 %.0
}